; Function Attrs: nounwind uwtable
define internal i32 @t1_cmap_unicode_init(ptr noundef %0, ptr readnone captures(none) %1) #0 {
  %3 = load ptr, ptr %0, align 8
  %4 = getelementptr inbounds nuw i8, ptr %3, i64 776
  %5 = load ptr, ptr %4, align 8
  %6 = getelementptr inbounds nuw i8, ptr %5, i64 8
  %7 = load ptr, ptr %6, align 8
  %.not = icmp eq ptr %7, null
  br i1 %.not, label %14, label %8

8:                                                ; preds = %2
  %9 = getelementptr inbounds nuw i8, ptr %3, i64 184
  %10 = load ptr, ptr %9, align 8
  %11 = getelementptr inbounds nuw i8, ptr %3, i64 640
  %12 = load i32, ptr %11, align 8
  %13 = tail call i32 %7(ptr noundef %10, ptr noundef nonnull %0, i32 noundef %12, ptr noundef nonnull @psaux_get_glyph_name, ptr noundef null, ptr noundef nonnull %3) #20
  br label %14

14:                                               ; preds = %2, %8
  %.0 = phi i32 [ %13, %8 ], [ 7, %2 ]
  ret i32 %.0
}